target datalayout = "e-m:e-p270:32:32-p271:32:32-p272:64:64-i64:64-i128:128-f80:128-n8:16:32:64-S128"
target triple = "x86_64-pc-linux-gnu"

%struct.Agobj_s = type { %struct.Agtag_s, ptr }
%struct.Agtag_s = type { i32, i64 }
%struct.Agrec_s = type { ptr, ptr }
%struct.boxf = type { %struct.pointf_s, %struct.pointf_s }
%struct.pointf_s = type { double, double }
%struct.Agnodeinfo_t = type { %struct.Agrec_s, ptr, ptr, %struct.pointf_s, double, double, %struct.boxf, double, double, double, double, double, ptr, ptr, ptr, i8, i8, i8, i8, i32, i32, i32, ptr, double, i8, i8, ptr, ptr, i8, i64, i8, i8, i8, ptr, ptr, %struct.elist, %struct.elist, %struct.elist, %struct.elist, %struct.elist, ptr, i32, ptr, i32, i32, double, %struct.elist, %struct.elist, %struct.elist, %struct.elist, ptr, i32, i32, i32, [1 x double] }
%struct.elist = type { ptr, i64 }

@Ndim = external global i16, align 2
@.str.1 = private unnamed_addr constant [14 x i8] c"%lf,%lf,%lf%c\00", align 1
@PSinputscale = external global double, align 8
@.str.2 = private unnamed_addr constant [10 x i8] c"%lf,%lf%c\00", align 1
@N_z = external global ptr, align 8
@.str.3 = private unnamed_addr constant [4 x i8] c"%lf\00", align 1
@.str.4 = private unnamed_addr constant [44 x i8] c"node %s, position %s, expected two doubles\0A\00", align 1

; Function Attrs: nounwind uwtable
define zeroext i1 @user_pos(ptr noundef %0, ptr noundef %1, ptr noundef %2, i32 noundef %3) #0 {
  %5 = alloca i1, align 1
  %6 = alloca ptr, align 8
  %7 = alloca ptr, align 8
  %8 = alloca ptr, align 8
  %9 = alloca i32, align 4
  %10 = alloca ptr, align 8
  %11 = alloca ptr, align 8
  %12 = alloca i8, align 1
  %13 = alloca double, align 8
  %14 = alloca i32, align 4
  %15 = alloca i32, align 4
  %16 = alloca i32, align 4
  store ptr %0, ptr %6, align 8, !tbaa !45
  store ptr %1, ptr %7, align 8, !tbaa !45
  store ptr %2, ptr %8, align 8, !tbaa !3
  store i32 %3, ptr %9, align 4, !tbaa !47
  call void @llvm.lifetime.start.p0(i64 8, ptr %10) #15
  call void @llvm.lifetime.start.p0(i64 8, ptr %11) #15
  call void @llvm.lifetime.start.p0(i64 1, ptr %12) #15
  call void @llvm.lifetime.start.p0(i64 8, ptr %13) #15
  %17 = load ptr, ptr %6, align 8, !tbaa !45
  %18 = icmp eq ptr %17, null
  br i1 %18, label %19, label %20

19:                                               ; preds = %4
  store i1 false, ptr %5, align 1
  store i32 1, ptr %14, align 4
  br label %193

20:                                               ; preds = %4
  %21 = load ptr, ptr %8, align 8, !tbaa !3
  %22 = getelementptr inbounds nuw %struct.Agobj_s, ptr %21, i32 0, i32 1
  %23 = load ptr, ptr %22, align 8, !tbaa !8
  %24 = getelementptr inbounds nuw %struct.Agnodeinfo_t, ptr %23, i32 0, i32 22
  %25 = load ptr, ptr %24, align 8, !tbaa !33
  store ptr %25, ptr %10, align 8, !tbaa !48
  %26 = load ptr, ptr %8, align 8, !tbaa !3
  %27 = load ptr, ptr %6, align 8, !tbaa !45
  %28 = call ptr @agxget(ptr noundef %26, ptr noundef %27)
  store ptr %28, ptr %11, align 8, !tbaa !49
  %29 = load ptr, ptr %11, align 8, !tbaa !49
  %30 = getelementptr inbounds i8, ptr %29, i64 0
  %31 = load i8, ptr %30, align 1, !tbaa !50
  %32 = icmp ne i8 %31, 0
  br i1 %32, label %33, label %192

33:                                               ; preds = %20
  store i8 0, ptr %12, align 1, !tbaa !50
  %34 = load i16, ptr @Ndim, align 2, !tbaa !51
  %35 = zext i16 %34 to i32
  %36 = icmp sge i32 %35, 3
  br i1 %36, label %37, label %100

37:                                               ; preds = %33
  %38 = load ptr, ptr %11, align 8, !tbaa !49
  %39 = load ptr, ptr %10, align 8, !tbaa !48
  %40 = load ptr, ptr %10, align 8, !tbaa !48
  %41 = getelementptr inbounds double, ptr %40, i64 1
  %42 = load ptr, ptr %10, align 8, !tbaa !48
  %43 = getelementptr inbounds double, ptr %42, i64 2
  %44 = call i32 (ptr, ptr, ...) @__isoc99_sscanf(ptr noundef %38, ptr noundef @.str.1, ptr noundef %39, ptr noundef %41, ptr noundef %43, ptr noundef %12) #15
  %45 = icmp sge i32 %44, 3
  br i1 %45, label %46, label %100

46:                                               ; preds = %37
  %47 = load ptr, ptr %8, align 8, !tbaa !3
  %48 = getelementptr inbounds nuw %struct.Agobj_s, ptr %47, i32 0, i32 1
  %49 = load ptr, ptr %48, align 8, !tbaa !8
  %50 = getelementptr inbounds nuw %struct.Agnodeinfo_t, ptr %49, i32 0, i32 18
  store i8 1, ptr %50, align 1, !tbaa !52
  %51 = load double, ptr @PSinputscale, align 8, !tbaa !53
  %52 = fcmp ogt double %51, 0.000000e+00
  br i1 %52, label %53, label %75

53:                                               ; preds = %46
  call void @llvm.lifetime.start.p0(i64 4, ptr %15) #15
  store i32 0, ptr %15, align 4, !tbaa !47
  br label %54

54:                                               ; preds = %71, %53
  %55 = load i32, ptr %15, align 4, !tbaa !47
  %56 = load i16, ptr @Ndim, align 2, !tbaa !51
  %57 = zext i16 %56 to i32
  %58 = icmp slt i32 %55, %57
  br i1 %58, label %59, label %74

59:                                               ; preds = %54
  %60 = load ptr, ptr %10, align 8, !tbaa !48
  %61 = load i32, ptr %15, align 4, !tbaa !47
  %62 = sext i32 %61 to i64
  %63 = getelementptr inbounds double, ptr %60, i64 %62
  %64 = load double, ptr %63, align 8, !tbaa !53
  %65 = load double, ptr @PSinputscale, align 8, !tbaa !53
  %66 = fdiv double %64, %65
  %67 = load ptr, ptr %10, align 8, !tbaa !48
  %68 = load i32, ptr %15, align 4, !tbaa !47
  %69 = sext i32 %68 to i64
  %70 = getelementptr inbounds double, ptr %67, i64 %69
  store double %66, ptr %70, align 8, !tbaa !53
  br label %71

71:                                               ; preds = %59
  %72 = load i32, ptr %15, align 4, !tbaa !47
  %73 = add nsw i32 %72, 1
  store i32 %73, ptr %15, align 4, !tbaa !47
  br label %54, !llvm.loop !54

74:                                               ; preds = %54
  call void @llvm.lifetime.end.p0(i64 4, ptr %15) #15
  br label %75

75:                                               ; preds = %74, %46
  %76 = load i16, ptr @Ndim, align 2, !tbaa !51
  %77 = zext i16 %76 to i32
  %78 = icmp sgt i32 %77, 3
  br i1 %78, label %79, label %82

79:                                               ; preds = %75
  %80 = load ptr, ptr %8, align 8, !tbaa !3
  %81 = load i32, ptr %9, align 4, !tbaa !47
  call void @jitter_d(ptr noundef %80, i32 noundef %81, i32 noundef 3)
  br label %82

82:                                               ; preds = %79, %75
  %83 = load i8, ptr %12, align 1, !tbaa !50
  %84 = sext i8 %83 to i32
  %85 = icmp eq i32 %84, 33
  br i1 %85, label %94, label %86

86:                                               ; preds = %82
  %87 = load ptr, ptr %7, align 8, !tbaa !45
  %88 = icmp ne ptr %87, null
  br i1 %88, label %89, label %99

89:                                               ; preds = %86
  %90 = load ptr, ptr %8, align 8, !tbaa !3
  %91 = load ptr, ptr %7, align 8, !tbaa !45
  %92 = call ptr @agxget(ptr noundef %90, ptr noundef %91)
  %93 = call zeroext i1 @mapbool(ptr noundef %92)
  br i1 %93, label %94, label %99

94:                                               ; preds = %89, %82
  %95 = load ptr, ptr %8, align 8, !tbaa !3
  %96 = getelementptr inbounds nuw %struct.Agobj_s, ptr %95, i32 0, i32 1
  %97 = load ptr, ptr %96, align 8, !tbaa !8
  %98 = getelementptr inbounds nuw %struct.Agnodeinfo_t, ptr %97, i32 0, i32 18
  store i8 3, ptr %98, align 1, !tbaa !52
  br label %99

99:                                               ; preds = %94, %89, %86
  store i1 true, ptr %5, align 1
  store i32 1, ptr %14, align 4
  br label %193

100:                                              ; preds = %37, %33
  %101 = load ptr, ptr %11, align 8, !tbaa !49
  %102 = load ptr, ptr %10, align 8, !tbaa !48
  %103 = load ptr, ptr %10, align 8, !tbaa !48
  %104 = getelementptr inbounds double, ptr %103, i64 1
  %105 = call i32 (ptr, ptr, ...) @__isoc99_sscanf(ptr noundef %101, ptr noundef @.str.2, ptr noundef %102, ptr noundef %104, ptr noundef %12) #15
  %106 = icmp sge i32 %105, 2
  br i1 %106, label %107, label %186

107:                                              ; preds = %100
  %108 = load ptr, ptr %8, align 8, !tbaa !3
  %109 = getelementptr inbounds nuw %struct.Agobj_s, ptr %108, i32 0, i32 1
  %110 = load ptr, ptr %109, align 8, !tbaa !8
  %111 = getelementptr inbounds nuw %struct.Agnodeinfo_t, ptr %110, i32 0, i32 18
  store i8 1, ptr %111, align 1, !tbaa !52
  %112 = load double, ptr @PSinputscale, align 8, !tbaa !53
  %113 = fcmp ogt double %112, 0.000000e+00
  br i1 %113, label %114, label %132

114:                                              ; preds = %107
  call void @llvm.lifetime.start.p0(i64 4, ptr %16) #15
  store i32 0, ptr %16, align 4, !tbaa !47
  br label %115

115:                                              ; preds = %128, %114
  %116 = load i32, ptr %16, align 4, !tbaa !47
  %117 = load i16, ptr @Ndim, align 2, !tbaa !51
  %118 = zext i16 %117 to i32
  %119 = icmp slt i32 %116, %118
  br i1 %119, label %120, label %131

120:                                              ; preds = %115
  %121 = load double, ptr @PSinputscale, align 8, !tbaa !53
  %122 = load ptr, ptr %10, align 8, !tbaa !48
  %123 = load i32, ptr %16, align 4, !tbaa !47
  %124 = sext i32 %123 to i64
  %125 = getelementptr inbounds double, ptr %122, i64 %124
  %126 = load double, ptr %125, align 8, !tbaa !53
  %127 = fdiv double %126, %121
  store double %127, ptr %125, align 8, !tbaa !53
  br label %128

128:                                              ; preds = %120
  %129 = load i32, ptr %16, align 4, !tbaa !47
  %130 = add nsw i32 %129, 1
  store i32 %130, ptr %16, align 4, !tbaa !47
  br label %115, !llvm.loop !56

131:                                              ; preds = %115
  call void @llvm.lifetime.end.p0(i64 4, ptr %16) #15
  br label %132

132:                                              ; preds = %131, %107
  %133 = load i16, ptr @Ndim, align 2, !tbaa !51
  %134 = zext i16 %133 to i32
  %135 = icmp sgt i32 %134, 2
  br i1 %135, label %136, label %168

136:                                              ; preds = %132
  %137 = load ptr, ptr @N_z, align 8, !tbaa !45
  %138 = icmp ne ptr %137, null
  br i1 %138, label %139, label %164

139:                                              ; preds = %136
  %140 = load ptr, ptr %8, align 8, !tbaa !3
  %141 = load ptr, ptr @N_z, align 8, !tbaa !45
  %142 = call ptr @agxget(ptr noundef %140, ptr noundef %141)
  store ptr %142, ptr %11, align 8, !tbaa !49
  %143 = icmp ne ptr %142, null
  br i1 %143, label %144, label %164

144:                                              ; preds = %139
  %145 = load ptr, ptr %11, align 8, !tbaa !49
  %146 = call i32 (ptr, ptr, ...) @__isoc99_sscanf(ptr noundef %145, ptr noundef @.str.3, ptr noundef %13) #15
  %147 = icmp eq i32 %146, 1
  br i1 %147, label %148, label %164

148:                                              ; preds = %144
  %149 = load double, ptr @PSinputscale, align 8, !tbaa !53
  %150 = fcmp ogt double %149, 0.000000e+00
  br i1 %150, label %151, label %157

151:                                              ; preds = %148
  %152 = load double, ptr %13, align 8, !tbaa !53
  %153 = load double, ptr @PSinputscale, align 8, !tbaa !53
  %154 = fdiv double %152, %153
  %155 = load ptr, ptr %10, align 8, !tbaa !48
  %156 = getelementptr inbounds double, ptr %155, i64 2
  store double %154, ptr %156, align 8, !tbaa !53
  br label %161

157:                                              ; preds = %148
  %158 = load double, ptr %13, align 8, !tbaa !53
  %159 = load ptr, ptr %10, align 8, !tbaa !48
  %160 = getelementptr inbounds double, ptr %159, i64 2
  store double %158, ptr %160, align 8, !tbaa !53
  br label %161

161:                                              ; preds = %157, %151
  %162 = load ptr, ptr %8, align 8, !tbaa !3
  %163 = load i32, ptr %9, align 4, !tbaa !47
  call void @jitter_d(ptr noundef %162, i32 noundef %163, i32 noundef 3)
  br label %167

164:                                              ; preds = %144, %139, %136
  %165 = load ptr, ptr %8, align 8, !tbaa !3
  %166 = load i32, ptr %9, align 4, !tbaa !47
  call void @jitter3d(ptr noundef %165, i32 noundef %166)
  br label %167

167:                                              ; preds = %164, %161
  br label %168

168:                                              ; preds = %167, %132
  %169 = load i8, ptr %12, align 1, !tbaa !50
  %170 = sext i8 %169 to i32
  %171 = icmp eq i32 %170, 33
  br i1 %171, label %180, label %172

172:                                              ; preds = %168
  %173 = load ptr, ptr %7, align 8, !tbaa !45
  %174 = icmp ne ptr %173, null
  br i1 %174, label %175, label %185

175:                                              ; preds = %172
  %176 = load ptr, ptr %8, align 8, !tbaa !3
  %177 = load ptr, ptr %7, align 8, !tbaa !45
  %178 = call ptr @agxget(ptr noundef %176, ptr noundef %177)
  %179 = call zeroext i1 @mapbool(ptr noundef %178)
  br i1 %179, label %180, label %185

180:                                              ; preds = %175, %168
  %181 = load ptr, ptr %8, align 8, !tbaa !3
  %182 = getelementptr inbounds nuw %struct.Agobj_s, ptr %181, i32 0, i32 1
  %183 = load ptr, ptr %182, align 8, !tbaa !8
  %184 = getelementptr inbounds nuw %struct.Agnodeinfo_t, ptr %183, i32 0, i32 18
  store i8 3, ptr %184, align 1, !tbaa !52
  br label %185

185:                                              ; preds = %180, %175, %172
  store i1 true, ptr %5, align 1
  store i32 1, ptr %14, align 4
  br label %193

186:                                              ; preds = %100
  %187 = load ptr, ptr %8, align 8, !tbaa !3
  %188 = call ptr @agnameof(ptr noundef %187)
  %189 = load ptr, ptr %11, align 8, !tbaa !49
  call void (ptr, ...) @agerrorf(ptr noundef @.str.4, ptr noundef %188, ptr noundef %189)
  br label %190

190:                                              ; preds = %186
  br label %191

191:                                              ; preds = %190
  br label %192

192:                                              ; preds = %191, %20
  store i1 false, ptr %5, align 1
  store i32 1, ptr %14, align 4
  br label %193

193:                                              ; preds = %192, %185, %99, %19
  call void @llvm.lifetime.end.p0(i64 8, ptr %13) #15
  call void @llvm.lifetime.end.p0(i64 1, ptr %12) #15
  call void @llvm.lifetime.end.p0(i64 8, ptr %11) #15
  call void @llvm.lifetime.end.p0(i64 8, ptr %10) #15
  %194 = load i1, ptr %5, align 1
  ret i1 %194
}