; Function Attrs: nounwind uwtable
define noundef zeroext i1 @user_pos(ptr noundef %0, ptr noundef %1, ptr noundef %2, i32 noundef %3) local_unnamed_addr #0 {
  %5 = alloca i8, align 1
  %6 = alloca double, align 8
  call void @llvm.lifetime.start.p0(i64 1, ptr nonnull %5) #22
  call void @llvm.lifetime.start.p0(i64 8, ptr nonnull %6) #22
  %7 = icmp eq ptr %0, null
  br i1 %7, label %84, label %8

8:                                                ; preds = %4
  %9 = getelementptr inbounds nuw i8, ptr %2, i64 16
  %10 = load ptr, ptr %9, align 8, !tbaa !3
  %11 = getelementptr inbounds nuw i8, ptr %10, i64 176
  %12 = load ptr, ptr %11, align 8, !tbaa !34
  %13 = tail call ptr @agxget(ptr noundef %2, ptr noundef nonnull %0) #22
  %14 = load i8, ptr %13, align 1, !tbaa !42
  %.not = icmp eq i8 %14, 0
  br i1 %.not, label %84, label %15

15:                                               ; preds = %8
  store i8 0, ptr %5, align 1, !tbaa !42
  %16 = load i16, ptr @Ndim, align 2, !tbaa !43
  %17 = icmp ugt i16 %16, 2
  br i1 %17, label %18, label %44

18:                                               ; preds = %15
  %19 = getelementptr inbounds nuw i8, ptr %12, i64 8
  %20 = getelementptr inbounds nuw i8, ptr %12, i64 16
  %21 = call i32 (ptr, ptr, ...) @__isoc99_sscanf(ptr noundef nonnull %13, ptr noundef nonnull @.str.1, ptr noundef %12, ptr noundef nonnull %19, ptr noundef nonnull %20, ptr noundef nonnull %5) #22
  %22 = icmp sgt i32 %21, 2
  br i1 %22, label %23, label %44

23:                                               ; preds = %18
  %24 = load ptr, ptr %9, align 8, !tbaa !3
  %25 = getelementptr inbounds nuw i8, ptr %24, i64 163
  store i8 1, ptr %25, align 1, !tbaa !44
  %26 = load double, ptr @PSinputscale, align 8, !tbaa !45
  %27 = fcmp ogt double %26, 0.000000e+00
  %28 = load i16, ptr @Ndim, align 2, !tbaa !43
  br i1 %27, label %.preheader, label %.loopexit

.preheader:                                       ; preds = %23
  %.not65 = icmp eq i16 %28, 0
  br i1 %.not65, label %.loopexit.thread, label %.lr.ph62.preheader

.lr.ph62.preheader:                               ; preds = %.preheader
  %wide.trip.count70 = zext i16 %28 to i64
  br label %.lr.ph62

.lr.ph62:                                         ; preds = %.lr.ph62.preheader, %.lr.ph62
  %indvars.iv67 = phi i64 [ 0, %.lr.ph62.preheader ], [ %indvars.iv.next68, %.lr.ph62 ]
  %29 = getelementptr inbounds nuw double, ptr %12, i64 %indvars.iv67
  %30 = load double, ptr %29, align 8, !tbaa !45
  %31 = load double, ptr @PSinputscale, align 8, !tbaa !45
  %32 = fdiv double %30, %31
  store double %32, ptr %29, align 8, !tbaa !45
  %indvars.iv.next68 = add nuw nsw i64 %indvars.iv67, 1
  %exitcond71.not = icmp eq i64 %indvars.iv.next68, %wide.trip.count70
  br i1 %exitcond71.not, label %.loopexit, label %.lr.ph62, !llvm.loop !46

.loopexit:                                        ; preds = %.lr.ph62, %23
  %33 = icmp ugt i16 %28, 3
  br i1 %33, label %34, label %.loopexit.thread

34:                                               ; preds = %.loopexit
  call void @jitter_d(ptr noundef %2, i32 noundef %3, i32 noundef 3) #22
  br label %.loopexit.thread

.loopexit.thread:                                 ; preds = %.preheader, %34, %.loopexit
  %35 = load i8, ptr %5, align 1, !tbaa !42
  %36 = icmp eq i8 %35, 33
  br i1 %36, label %41, label %37

37:                                               ; preds = %.loopexit.thread
  %.not54 = icmp eq ptr %1, null
  br i1 %.not54, label %84, label %38

38:                                               ; preds = %37
  %39 = call ptr @agxget(ptr noundef %2, ptr noundef nonnull %1) #22
  %40 = call zeroext i1 @mapbool(ptr noundef %39) #22
  br i1 %40, label %41, label %84

41:                                               ; preds = %38, %.loopexit.thread
  %42 = load ptr, ptr %9, align 8, !tbaa !3
  %43 = getelementptr inbounds nuw i8, ptr %42, i64 163
  store i8 3, ptr %43, align 1, !tbaa !44
  br label %84

44:                                               ; preds = %18, %15
  %45 = getelementptr inbounds nuw i8, ptr %12, i64 8
  %46 = call i32 (ptr, ptr, ...) @__isoc99_sscanf(ptr noundef nonnull %13, ptr noundef nonnull @.str.2, ptr noundef %12, ptr noundef nonnull %45, ptr noundef nonnull %5) #22
  %47 = icmp sgt i32 %46, 1
  br i1 %47, label %48, label %82

48:                                               ; preds = %44
  %49 = load ptr, ptr %9, align 8, !tbaa !3
  %50 = getelementptr inbounds nuw i8, ptr %49, i64 163
  store i8 1, ptr %50, align 1, !tbaa !44
  %51 = load double, ptr @PSinputscale, align 8, !tbaa !45
  %52 = fcmp ogt double %51, 0.000000e+00
  %53 = load i16, ptr @Ndim, align 2, !tbaa !43
  br i1 %52, label %.preheader57, label %.loopexit58

.preheader57:                                     ; preds = %48
  %.not64 = icmp eq i16 %53, 0
  br i1 %.not64, label %.loopexit58.thread, label %.lr.ph.preheader

.lr.ph.preheader:                                 ; preds = %.preheader57
  %wide.trip.count = zext i16 %53 to i64
  br label %.lr.ph

.lr.ph:                                           ; preds = %.lr.ph.preheader, %.lr.ph
  %indvars.iv = phi i64 [ 0, %.lr.ph.preheader ], [ %indvars.iv.next, %.lr.ph ]
  %54 = load double, ptr @PSinputscale, align 8, !tbaa !45
  %55 = getelementptr inbounds nuw double, ptr %12, i64 %indvars.iv
  %56 = load double, ptr %55, align 8, !tbaa !45
  %57 = fdiv double %56, %54
  store double %57, ptr %55, align 8, !tbaa !45
  %indvars.iv.next = add nuw nsw i64 %indvars.iv, 1
  %exitcond.not = icmp eq i64 %indvars.iv.next, %wide.trip.count
  br i1 %exitcond.not, label %.loopexit58, label %.lr.ph, !llvm.loop !48

.loopexit58:                                      ; preds = %.lr.ph, %48
  %58 = icmp ugt i16 %53, 2
  br i1 %58, label %59, label %.loopexit58.thread

59:                                               ; preds = %.loopexit58
  %60 = load ptr, ptr @N_z, align 8, !tbaa !49
  %.not51 = icmp eq ptr %60, null
  br i1 %.not51, label %72, label %61

61:                                               ; preds = %59
  %62 = call ptr @agxget(ptr noundef %2, ptr noundef nonnull %60) #22
  %.not52 = icmp eq ptr %62, null
  br i1 %.not52, label %72, label %63

63:                                               ; preds = %61
  %64 = call i32 (ptr, ptr, ...) @__isoc99_sscanf(ptr noundef nonnull %62, ptr noundef nonnull @.str.3, ptr noundef nonnull %6) #22
  %65 = icmp eq i32 %64, 1
  br i1 %65, label %66, label %72

66:                                               ; preds = %63
  %67 = load double, ptr @PSinputscale, align 8, !tbaa !45
  %68 = fcmp ogt double %67, 0.000000e+00
  %69 = load double, ptr %6, align 8, !tbaa !45
  %70 = fdiv double %69, %67
  %.sink = select i1 %68, double %70, double %69
  %71 = getelementptr inbounds nuw i8, ptr %12, i64 16
  store double %.sink, ptr %71, align 8, !tbaa !45
  call void @jitter_d(ptr noundef %2, i32 noundef %3, i32 noundef 3) #22
  br label %.loopexit58.thread

72:                                               ; preds = %63, %61, %59
  call void @jitter3d(ptr noundef %2, i32 noundef %3) #22
  br label %.loopexit58.thread

.loopexit58.thread:                               ; preds = %.preheader57, %66, %72, %.loopexit58
  %73 = load i8, ptr %5, align 1, !tbaa !42
  %74 = icmp eq i8 %73, 33
  br i1 %74, label %79, label %75

75:                                               ; preds = %.loopexit58.thread
  %.not53 = icmp eq ptr %1, null
  br i1 %.not53, label %84, label %76

76:                                               ; preds = %75
  %77 = call ptr @agxget(ptr noundef %2, ptr noundef nonnull %1) #22
  %78 = call zeroext i1 @mapbool(ptr noundef %77) #22
  br i1 %78, label %79, label %84

79:                                               ; preds = %76, %.loopexit58.thread
  %80 = load ptr, ptr %9, align 8, !tbaa !3
  %81 = getelementptr inbounds nuw i8, ptr %80, i64 163
  store i8 3, ptr %81, align 1, !tbaa !44
  br label %84

82:                                               ; preds = %44
  %83 = call ptr @agnameof(ptr noundef nonnull %2) #22
  call void (ptr, ...) @agerrorf(ptr noundef nonnull @.str.4, ptr noundef %83, ptr noundef nonnull %13) #22
  br label %84

84:                                               ; preds = %8, %82, %75, %76, %79, %37, %38, %41, %4
  %.045 = phi i1 [ false, %4 ], [ true, %41 ], [ true, %38 ], [ true, %37 ], [ true, %79 ], [ true, %76 ], [ true, %75 ], [ false, %82 ], [ false, %8 ]
  call void @llvm.lifetime.end.p0(i64 8, ptr nonnull %6) #22
  call void @llvm.lifetime.end.p0(i64 1, ptr nonnull %5) #22
  ret i1 %.045
}